	.arch armv6
	.eabi_attribute 27, 3
	.eabi_attribute 28, 1
	.fpu vfp
	.eabi_attribute 20, 1
	.eabi_attribute 21, 1
	.eabi_attribute 23, 3
	.eabi_attribute 24, 1
	.eabi_attribute 25, 1
	.eabi_attribute 26, 2
	.eabi_attribute 30, 6
	.eabi_attribute 18, 4
	.file	"wS.c"
	.section	.rodata
	.align	2
.LC0:
	.ascii	"cub\000"
	.align	2
.LC1:
	.ascii	"one\000"
	.align	2
.LC2:
	.ascii	"fog\000"
	.align	2
.LC3:
	.ascii	"act\000"
	.align	2
.LC4:
	.ascii	"try\000"
	.align	2
.LC5:
	.ascii	"ban\000"
	.align	2
.LC6:
	.ascii	"real\000"
	.align	2
.LC7:
	.ascii	"join\000"
	.align	2
.LC8:
	.ascii	"town\000"
	.align	2
.LC9:
	.ascii	"peck\000"
	.align	2
.LC10:
	.ascii	"wish\000"
	.align	2
.LC11:
	.ascii	"hate\000"
	.align	2
.LC12:
	.ascii	"kind\000"
	.align	2
.LC13:
	.ascii	"rate\000"
	.align	2
.LC14:
	.ascii	"mint\000"
	.align	2
.LC15:
	.ascii	"turn\000"
	.align	2
.LC16:
	.ascii	"rose\000"
	.align	2
.LC17:
	.ascii	"roll\000"
	.align	2
.LC18:
	.ascii	"head\000"
	.align	2
.LC19:
	.ascii	"bite\000"
	.align	2
.LC20:
	.ascii	"angry\000"
	.align	2
.LC21:
	.ascii	"found\000"
	.align	2
.LC22:
	.ascii	"crash\000"
	.align	2
.LC23:
	.ascii	"sable\000"
	.align	2
.LC24:
	.ascii	"smile\000"
	.align	2
.LC25:
	.ascii	"reign\000"
	.align	2
.LC26:
	.ascii	"blade\000"
	.align	2
.LC27:
	.ascii	"goofy\000"
	.align	2
.LC28:
	.ascii	"plain\000"
	.align	2
.LC29:
	.ascii	"rings\000"
	.align	2
.LC30:
	.ascii	"house\000"
	.align	2
.LC31:
	.ascii	"pause\000"
	.align	2
.LC32:
	.ascii	"level\000"
	.align	2
.LC33:
	.ascii	"large\000"
	.align	2
.LC34:
	.ascii	"rigid\000"
	.align	2
.LC35:
	.ascii	"earth\000"
	.align	2
.LC36:
	.ascii	"trust\000"
	.align	2
.LC37:
	.ascii	"itchy\000"
	.align	2
.LC38:
	.ascii	"brass\000"
	.align	2
.LC39:
	.ascii	"curvy\000"
	.align	2
.LC40:
	.ascii	"heady\000"
	.align	2
.LC41:
	.ascii	"witty\000"
	.align	2
.LC42:
	.ascii	"drain\000"
	.align	2
.LC43:
	.ascii	"nippy\000"
	.align	2
.LC44:
	.ascii	"ducks\000"
	.align	2
.LC45:
	.ascii	"spell\000"
	.align	2
.LC46:
	.ascii	"class\000"
	.align	2
.LC47:
	.ascii	"obtain\000"
	.align	2
.LC48:
	.ascii	"plucky\000"
	.align	2
.LC49:
	.ascii	"craven\000"
	.align	2
.LC50:
	.ascii	"double\000"
	.align	2
.LC51:
	.ascii	"sponge\000"
	.align	2
.LC52:
	.ascii	"grubby\000"
	.align	2
.LC53:
	.ascii	"tested\000"
	.align	2
.LC54:
	.ascii	"search\000"
	.align	2
.LC55:
	.ascii	"absent\000"
	.align	2
.LC56:
	.ascii	"friend\000"
	.align	2
.LC57:
	.ascii	"amount\000"
	.align	2
.LC58:
	.ascii	"famous\000"
	.align	2
.LC59:
	.ascii	"sordid\000"
	.align	2
.LC60:
	.ascii	"chilly\000"
	.align	2
.LC61:
	.ascii	"belief\000"
	.align	2
.LC62:
	.ascii	"shrill\000"
	.align	2
.LC63:
	.ascii	"settle\000"
	.align	2
.LC64:
	.ascii	"weather\000"
	.align	2
.LC65:
	.ascii	"stomach\000"
	.align	2
.LC66:
	.ascii	"violent\000"
	.align	2
.LC67:
	.ascii	"contain\000"
	.align	2
.LC68:
	.ascii	"morning\000"
	.align	2
.LC69:
	.ascii	"married\000"
	.align	2
.LC70:
	.ascii	"popcorn\000"
	.align	2
.LC71:
	.ascii	"ancient\000"
	.align	2
.LC72:
	.ascii	"undress\000"
	.align	2
.LC73:
	.ascii	"lacking\000"
	.align	2
.LC74:
	.ascii	"thirsty\000"
	.align	2
.LC75:
	.ascii	"limping\000"
	.align	2
.LC76:
	.ascii	"connect\000"
	.align	2
.LC77:
	.ascii	"unkempt\000"
	.align	2
.LC78:
	.ascii	"precede\000"
	.align	2
.LC79:
	.ascii	"whisper\000"
	.align	2
.LC80:
	.ascii	"careless\000"
	.align	2
.LC81:
	.ascii	"vengeful\000"
	.align	2
.LC82:
	.ascii	"umbrella\000"
	.align	2
.LC83:
	.ascii	"position\000"
	.align	2
.LC84:
	.ascii	"multiply\000"
	.align	2
.LC85:
	.ascii	"cheerful\000"
	.align	2
.LC86:
	.ascii	"heavenly\000"
	.align	2
.LC87:
	.ascii	"gruesome\000"
	.align	2
.LC88:
	.ascii	"religion\000"
	.align	2
.LC89:
	.ascii	"quixotic\000"
	.align	2
.LC90:
	.ascii	"alcoholic\000"
	.align	2
.LC91:
	.ascii	"grandiose\000"
	.align	2
.LC92:
	.ascii	"beautiful\000"
	.align	2
.LC93:
	.ascii	"thinkable\000"
	.align	2
.LC94:
	.ascii	"miniature\000"
	.align	2
.LC95:
	.ascii	"vivacious\000"
	.align	2
.LC96:
	.ascii	"voracious\000"
	.align	2
.LC97:
	.ascii	"connection\000"
	.align	2
.LC98:
	.ascii	"comfortable\000"
	.align	2
.LC99:
	.ascii	"advertisement\000"
	.global	__aeabi_idivmod
	.text
	.align	2
	.global	getWords
	.type	getWords, %function
getWords:
	@ args = 0, pretend = 0, frame = 448
	@ frame_needed = 1, uses_anonymous_args = 0
	stmfd	sp!, {r4, r5, r6, r7, r8, fp, lr}
	add	fp, sp, #24
	sub	sp, sp, #452
	str	r0, [fp, #-464]
	str	r1, [fp, #-468]
	str	r2, [fp, #-472]
	mov	r3, sp
	mov	r8, r3
	ldr	r0, [fp, #-468]
	sub	r3, r0, #1
	str	r3, [fp, #-48]
	mov	r1, r0
	mov	r2, r1
	mov	r3, #0
	mov	r1, r2, lsr #27
	mov	r7, r3, asl #5
	orr	r7, r1, r7
	mov	r6, r2, asl #5
	mov	r1, r0
	mov	r2, r1
	mov	r3, #0
	mov	r1, r2, lsr #27
	mov	r5, r3, asl #5
	orr	r5, r1, r5
	mov	r4, r2, asl #5
	mov	r3, r0
	mov	r3, r3, asl #2
	add	r3, r3, #7
	add	r3, r3, #7
	mov	r3, r3, lsr #3
	mov	r3, r3, asl #3
	sub	sp, sp, r3
	mov	r3, sp
	add	r3, r3, #7
	mov	r3, r3, lsr #3
	mov	r3, r3, asl #3
	str	r3, [fp, #-52]
	ldr	r2, [fp, #-52]
	mov	r3, r0
	mov	r3, r3, asl #2
	mov	r0, r2
	mvn	r1, #0
	mov	r2, r3
	bl	memset
	ldr	r3, .L9
	str	r3, [fp, #-456]
	ldr	r3, .L9+4
	str	r3, [fp, #-452]
	ldr	r3, .L9+8
	str	r3, [fp, #-448]
	ldr	r3, .L9+12
	str	r3, [fp, #-444]
	ldr	r3, .L9+16
	str	r3, [fp, #-440]
	ldr	r3, .L9+20
	str	r3, [fp, #-436]
	ldr	r3, .L9+24
	str	r3, [fp, #-432]
	ldr	r3, .L9+28
	str	r3, [fp, #-428]
	ldr	r3, .L9+32
	str	r3, [fp, #-424]
	ldr	r3, .L9+36
	str	r3, [fp, #-420]
	ldr	r3, .L9+40
	str	r3, [fp, #-416]
	ldr	r3, .L9+44
	str	r3, [fp, #-412]
	ldr	r3, .L9+48
	str	r3, [fp, #-408]
	ldr	r3, .L9+52
	str	r3, [fp, #-404]
	ldr	r3, .L9+56
	str	r3, [fp, #-400]
	ldr	r3, .L9+60
	str	r3, [fp, #-396]
	ldr	r3, .L9+64
	str	r3, [fp, #-392]
	ldr	r3, .L9+68
	str	r3, [fp, #-388]
	ldr	r3, .L9+72
	str	r3, [fp, #-384]
	ldr	r3, .L9+76
	str	r3, [fp, #-380]
	ldr	r3, .L9+80
	str	r3, [fp, #-376]
	ldr	r3, .L9+84
	str	r3, [fp, #-372]
	ldr	r3, .L9+88
	str	r3, [fp, #-368]
	ldr	r3, .L9+92
	str	r3, [fp, #-364]
	ldr	r3, .L9+96
	str	r3, [fp, #-360]
	ldr	r3, .L9+100
	str	r3, [fp, #-356]
	ldr	r3, .L9+104
	str	r3, [fp, #-352]
	ldr	r3, .L9+108
	str	r3, [fp, #-348]
	ldr	r3, .L9+112
	str	r3, [fp, #-344]
	ldr	r3, .L9+116
	str	r3, [fp, #-340]
	ldr	r3, .L9+120
	str	r3, [fp, #-336]
	ldr	r3, .L9+124
	str	r3, [fp, #-332]
	ldr	r3, .L9+128
	str	r3, [fp, #-328]
	ldr	r3, .L9+132
	str	r3, [fp, #-324]
	ldr	r3, .L9+136
	str	r3, [fp, #-320]
	ldr	r3, .L9+140
	str	r3, [fp, #-316]
	ldr	r3, .L9+144
	str	r3, [fp, #-312]
	ldr	r3, .L9+148
	str	r3, [fp, #-308]
	ldr	r3, .L9+152
	str	r3, [fp, #-304]
	ldr	r3, .L9+156
	str	r3, [fp, #-300]
	ldr	r3, .L9+160
	str	r3, [fp, #-296]
	ldr	r3, .L9+164
	str	r3, [fp, #-292]
	ldr	r3, .L9+168
	str	r3, [fp, #-288]
	ldr	r3, .L9+172
	str	r3, [fp, #-284]
	ldr	r3, .L9+176
	str	r3, [fp, #-280]
	ldr	r3, .L9+180
	str	r3, [fp, #-276]
	ldr	r3, .L9+184
	str	r3, [fp, #-272]
	ldr	r3, .L9+188
	str	r3, [fp, #-268]
	ldr	r3, .L9+192
	str	r3, [fp, #-264]
	ldr	r3, .L9+196
	str	r3, [fp, #-260]
	ldr	r3, .L9+200
	str	r3, [fp, #-256]
	ldr	r3, .L9+204
	str	r3, [fp, #-252]
	ldr	r3, .L9+208
	str	r3, [fp, #-248]
	ldr	r3, .L9+212
	str	r3, [fp, #-244]
	ldr	r3, .L9+216
	str	r3, [fp, #-240]
	ldr	r3, .L9+220
	str	r3, [fp, #-236]
	ldr	r3, .L9+224
	str	r3, [fp, #-232]
	ldr	r3, .L9+228
	str	r3, [fp, #-228]
	ldr	r3, .L9+232
	str	r3, [fp, #-224]
	ldr	r3, .L9+236
	str	r3, [fp, #-220]
	ldr	r3, .L9+240
	str	r3, [fp, #-216]
	ldr	r3, .L9+244
	str	r3, [fp, #-212]
	ldr	r3, .L9+248
	str	r3, [fp, #-208]
	ldr	r3, .L9+252
	str	r3, [fp, #-204]
	ldr	r3, .L9+256
	str	r3, [fp, #-200]
	ldr	r3, .L9+260
	str	r3, [fp, #-196]
	ldr	r3, .L9+264
	str	r3, [fp, #-192]
	ldr	r3, .L9+268
	str	r3, [fp, #-188]
	ldr	r3, .L9+272
	str	r3, [fp, #-184]
	ldr	r3, .L9+276
	str	r3, [fp, #-180]
	ldr	r3, .L9+280
	str	r3, [fp, #-176]
	ldr	r3, .L9+284
	str	r3, [fp, #-172]
	ldr	r3, .L9+288
	str	r3, [fp, #-168]
	ldr	r3, .L9+292
	str	r3, [fp, #-164]
	ldr	r3, .L9+296
	str	r3, [fp, #-160]
	ldr	r3, .L9+300
	str	r3, [fp, #-156]
	ldr	r3, .L9+304
	str	r3, [fp, #-152]
	ldr	r3, .L9+308
	str	r3, [fp, #-148]
	ldr	r3, .L9+312
	str	r3, [fp, #-144]
	ldr	r3, .L9+316
	str	r3, [fp, #-140]
	ldr	r3, .L9+320
	str	r3, [fp, #-136]
	ldr	r3, .L9+324
	str	r3, [fp, #-132]
	ldr	r3, .L9+328
	str	r3, [fp, #-128]
	ldr	r3, .L9+332
	str	r3, [fp, #-124]
	ldr	r3, .L9+336
	str	r3, [fp, #-120]
	ldr	r3, .L9+340
	str	r3, [fp, #-116]
	ldr	r3, .L9+344
	str	r3, [fp, #-112]
	ldr	r3, .L9+348
	str	r3, [fp, #-108]
	ldr	r3, .L9+352
	str	r3, [fp, #-104]
	ldr	r3, .L9+356
	str	r3, [fp, #-100]
	ldr	r3, .L9+360
	str	r3, [fp, #-96]
	ldr	r3, .L9+364
	str	r3, [fp, #-92]
	ldr	r3, .L9+368
	str	r3, [fp, #-88]
	ldr	r3, .L9+372
	str	r3, [fp, #-84]
	ldr	r3, .L9+376
	str	r3, [fp, #-80]
	ldr	r3, .L9+380
	str	r3, [fp, #-76]
	ldr	r3, .L9+384
	str	r3, [fp, #-72]
	ldr	r3, .L9+388
	str	r3, [fp, #-68]
	ldr	r3, .L9+392
	str	r3, [fp, #-64]
	ldr	r3, .L9+396
	str	r3, [fp, #-60]
	mov	r3, #99
	str	r3, [fp, #-32]
	b	.L2
.L3:
	ldr	r3, [fp, #-32]
	sub	r3, r3, #1
	str	r3, [fp, #-32]
.L2:
	ldr	r2, [fp, #-32]
	ldr	r3, .L9+400
	mov	r2, r2, asl #2
	sub	r0, fp, #28
	add	r2, r0, r2
	add	r3, r2, r3
	ldr	r3, [r3, #0]
	mov	r0, r3
	bl	strlen
	mov	r3, r0
	mov	r2, r3
	ldr	r3, [fp, #-464]
	cmp	r2, r3
	bhi	.L3
	mov	r3, #0
	str	r3, [fp, #-36]
	b	.L4
.L8:
	mov	r3, #1
	str	r3, [fp, #-40]
	bl	rand
	mov	r3, r0
	mov	r0, r3
	ldr	r1, [fp, #-32]
	bl	__aeabi_idivmod
	mov	r3, r1
	str	r3, [fp, #-56]
	mov	r3, #0
	str	r3, [fp, #-44]
	b	.L5
.L7:
	ldr	r3, [fp, #-52]
	ldr	r2, [fp, #-44]
	ldr	r2, [r3, r2, asl #2]
	ldr	r3, [fp, #-56]
	cmp	r2, r3
	bne	.L6
	mov	r3, #0
	str	r3, [fp, #-40]
.L6:
	ldr	r3, [fp, #-44]
	add	r3, r3, #1
	str	r3, [fp, #-44]
.L5:
	ldr	r2, [fp, #-44]
	ldr	r3, [fp, #-468]
	cmp	r2, r3
	blt	.L7
	ldr	r3, [fp, #-36]
	mov	r3, r3, asl #2
	ldr	r2, [fp, #-472]
	add	r3, r2, r3
	ldr	r2, [r3, #0]
	ldr	r1, [fp, #-56]
	ldr	r3, .L9+400
	mov	r1, r1, asl #2
	sub	r0, fp, #28
	add	r1, r0, r1
	add	r3, r1, r3
	ldr	r3, [r3, #0]
	mov	r0, r2
	mov	r1, r3
	bl	strcpy
	ldr	r3, [fp, #-52]
	ldr	r2, [fp, #-36]
	ldr	r1, [fp, #-56]
	str	r1, [r3, r2, asl #2]
	ldr	r3, [fp, #-40]
	cmp	r3, #0
	beq	.L8
	ldr	r3, [fp, #-36]
	add	r3, r3, #1
	str	r3, [fp, #-36]
.L4:
	ldr	r2, [fp, #-36]
	ldr	r3, [fp, #-468]
	cmp	r2, r3
	blt	.L8
	mov	sp, r8
	sub	sp, fp, #24
	ldmfd	sp!, {r4, r5, r6, r7, r8, fp, pc}
.L10:
	.align	2
.L9:
	.word	.LC0
	.word	.LC1
	.word	.LC2
	.word	.LC3
	.word	.LC4
	.word	.LC5
	.word	.LC6
	.word	.LC7
	.word	.LC8
	.word	.LC9
	.word	.LC10
	.word	.LC11
	.word	.LC12
	.word	.LC13
	.word	.LC14
	.word	.LC15
	.word	.LC16
	.word	.LC17
	.word	.LC18
	.word	.LC19
	.word	.LC20
	.word	.LC21
	.word	.LC22
	.word	.LC23
	.word	.LC24
	.word	.LC25
	.word	.LC26
	.word	.LC27
	.word	.LC28
	.word	.LC29
	.word	.LC30
	.word	.LC31
	.word	.LC32
	.word	.LC33
	.word	.LC34
	.word	.LC35
	.word	.LC36
	.word	.LC37
	.word	.LC38
	.word	.LC39
	.word	.LC40
	.word	.LC41
	.word	.LC42
	.word	.LC43
	.word	.LC44
	.word	.LC45
	.word	.LC46
	.word	.LC47
	.word	.LC48
	.word	.LC49
	.word	.LC50
	.word	.LC51
	.word	.LC52
	.word	.LC53
	.word	.LC54
	.word	.LC55
	.word	.LC56
	.word	.LC57
	.word	.LC58
	.word	.LC59
	.word	.LC60
	.word	.LC61
	.word	.LC62
	.word	.LC63
	.word	.LC64
	.word	.LC65
	.word	.LC66
	.word	.LC67
	.word	.LC68
	.word	.LC69
	.word	.LC70
	.word	.LC71
	.word	.LC72
	.word	.LC73
	.word	.LC74
	.word	.LC75
	.word	.LC76
	.word	.LC77
	.word	.LC78
	.word	.LC79
	.word	.LC80
	.word	.LC81
	.word	.LC82
	.word	.LC83
	.word	.LC84
	.word	.LC85
	.word	.LC86
	.word	.LC87
	.word	.LC88
	.word	.LC89
	.word	.LC90
	.word	.LC91
	.word	.LC92
	.word	.LC93
	.word	.LC94
	.word	.LC95
	.word	.LC96
	.word	.LC97
	.word	.LC98
	.word	.LC99
	.word	-428
	.size	getWords, .-getWords
	.section	.rodata
	.align	2
.LC100:
	.ascii	"Enter a matrix size between 10-20: \000"
	.align	2
.LC101:
	.ascii	"%d\000"
	.align	2
.LC102:
	.ascii	"Incorrect input, exiting...\000"
	.align	2
.LC103:
	.ascii	"Input error, please try again: \000"
	.text
	.align	2
	.global	getSize
	.type	getSize, %function
getSize:
	@ args = 0, pretend = 0, frame = 8
	@ frame_needed = 1, uses_anonymous_args = 0
	stmfd	sp!, {fp, lr}
	add	fp, sp, #4
	sub	sp, sp, #8
	mov	r3, #0
	str	r3, [fp, #-12]
	ldr	r3, .L16
	mov	r0, r3
	bl	printf
	ldr	r2, .L16+4
	sub	r3, fp, #12
	mov	r0, r2
	mov	r1, r3
	bl	__isoc99_scanf
	str	r0, [fp, #-8]
	ldr	r3, [fp, #-8]
	cmp	r3, #1
	beq	.L15
	ldr	r0, .L16+8
	bl	puts
	mov	r0, #1
	bl	exit
.L14:
	ldr	r3, .L16+12
	mov	r0, r3
	bl	printf
	ldr	r2, .L16+4
	sub	r3, fp, #12
	mov	r0, r2
	mov	r1, r3
	bl	__isoc99_scanf
	str	r0, [fp, #-8]
	b	.L13
.L15:
	mov	r0, r0	@ nop
.L13:
	ldr	r3, [fp, #-12]
	cmp	r3, #9
	ble	.L14
	ldr	r3, [fp, #-12]
	cmp	r3, #20
	bgt	.L14
	ldr	r3, [fp, #-12]
	mov	r0, r3
	sub	sp, fp, #4
	ldmfd	sp!, {fp, pc}
.L17:
	.align	2
.L16:
	.word	.LC100
	.word	.LC101
	.word	.LC102
	.word	.LC103
	.size	getSize, .-getSize
	.section	.rodata
	.align	2
.LC104:
	.ascii	"\012   \000"
	.align	2
.LC105:
	.ascii	"%2d  \000"
	.align	2
.LC106:
	.ascii	"%2d| \000"
	.align	2
.LC107:
	.ascii	"%c   \000"
	.text
	.align	2
	.global	printGrid
	.type	printGrid, %function
printGrid:
	@ args = 0, pretend = 0, frame = 24
	@ frame_needed = 1, uses_anonymous_args = 0
	stmfd	sp!, {r4, r5, r6, fp, lr}
	add	fp, sp, #16
	sub	sp, sp, #28
	str	r0, [fp, #-40]
	str	r1, [fp, #-44]
	ldr	r3, [fp, #-40]
	add	r6, r3, #1
	sub	r3, r6, #1
	str	r3, [fp, #-32]
	mov	r1, r6
	mov	r2, r1
	mov	r3, #0
	mov	r1, r2, lsr #29
	mov	r5, r3, asl #3
	orr	r5, r1, r5
	mov	r4, r2, asl #3
	ldr	r3, .L25
	mov	r0, r3
	bl	printf
	mov	r3, #0
	str	r3, [fp, #-24]
	b	.L19
.L20:
	ldr	r2, .L25+4
	ldr	r3, [fp, #-24]
	add	r3, r3, #1
	mov	r0, r2
	mov	r1, r3
	bl	printf
	ldr	r3, [fp, #-24]
	add	r3, r3, #1
	str	r3, [fp, #-24]
.L19:
	ldr	r2, [fp, #-24]
	ldr	r3, [fp, #-40]
	cmp	r2, r3
	blt	.L20
	mov	r0, #10
	bl	putchar
	mov	r3, #0
	str	r3, [fp, #-24]
	b	.L21
.L24:
	ldr	r2, .L25+8
	ldr	r3, [fp, #-24]
	add	r3, r3, #1
	mov	r0, r2
	mov	r1, r3
	bl	printf
	mov	r3, #0
	str	r3, [fp, #-28]
	b	.L22
.L23:
	ldr	r2, .L25+12
	mov	r3, r6
	ldr	r1, [fp, #-24]
	mul	r3, r1, r3
	ldr	r1, [fp, #-44]
	add	r1, r1, r3
	ldr	r3, [fp, #-28]
	add	r3, r1, r3
	ldrb	r3, [r3, #0]	@ zero_extendqisi2
	mov	r0, r2
	mov	r1, r3
	bl	printf
	ldr	r3, [fp, #-28]
	add	r3, r3, #1
	str	r3, [fp, #-28]
.L22:
	ldr	r2, [fp, #-28]
	ldr	r3, [fp, #-40]
	cmp	r2, r3
	blt	.L23
	mov	r0, #10
	bl	putchar
	ldr	r3, [fp, #-24]
	add	r3, r3, #1
	str	r3, [fp, #-24]
.L21:
	ldr	r2, [fp, #-24]
	ldr	r3, [fp, #-40]
	cmp	r2, r3
	blt	.L24
	sub	sp, fp, #16
	ldmfd	sp!, {r4, r5, r6, fp, pc}
.L26:
	.align	2
.L25:
	.word	.LC104
	.word	.LC105
	.word	.LC106
	.word	.LC107
	.size	printGrid, .-printGrid
	.section	.rodata
	.align	2
.LC108:
	.ascii	"\012WORD KEY:\000"
	.align	2
.LC109:
	.ascii	"%d) %s, \000"
	.align	2
.LC110:
	.ascii	"%d) %s\012\012\000"
	.text
	.align	2
	.global	printKey
	.type	printKey, %function
printKey:
	@ args = 0, pretend = 0, frame = 24
	@ frame_needed = 1, uses_anonymous_args = 0
	stmfd	sp!, {fp, lr}
	add	fp, sp, #4
	sub	sp, sp, #24
	str	r0, [fp, #-16]
	str	r1, [fp, #-20]
	str	r2, [fp, #-24]
	ldr	r0, .L30
	bl	puts
	mov	r3, #0
	str	r3, [fp, #-8]
	b	.L28
.L29:
	ldr	r1, .L30+4
	ldr	r3, [fp, #-8]
	add	r2, r3, #1
	ldr	r3, [fp, #-8]
	mov	r3, r3, asl #2
	ldr	r0, [fp, #-24]
	add	r3, r0, r3
	ldr	r3, [r3, #0]
	mov	r0, r1
	mov	r1, r2
	mov	r2, r3
	bl	printf
	ldr	r3, [fp, #-8]
	add	r3, r3, #1
	str	r3, [fp, #-8]
.L28:
	ldr	r3, [fp, #-16]
	sub	r2, r3, #1
	ldr	r3, [fp, #-8]
	cmp	r2, r3
	bgt	.L29
	ldr	r1, .L30+8
	ldr	r3, [fp, #-8]
	add	r2, r3, #1
	ldr	r3, [fp, #-16]
	sub	r3, r3, #1
	mov	r3, r3, asl #2
	ldr	r0, [fp, #-24]
	add	r3, r0, r3
	ldr	r3, [r3, #0]
	mov	r0, r1
	mov	r1, r2
	mov	r2, r3
	bl	printf
	sub	sp, fp, #4
	ldmfd	sp!, {fp, pc}
.L31:
	.align	2
.L30:
	.word	.LC108
	.word	.LC109
	.word	.LC110
	.size	printKey, .-printKey
	.section	.rodata
	.align	2
.LC111:
	.ascii	"Please enter the word number you want to check (0 t"
	.ascii	"o exit): \000"
	.align	2
.LC112:
	.ascii	"You have already found that word, please try again:"
	.ascii	" \000"
	.text
	.align	2
	.global	checkWordsRemain
	.type	checkWordsRemain, %function
checkWordsRemain:
	@ args = 0, pretend = 0, frame = 24
	@ frame_needed = 1, uses_anonymous_args = 0
	stmfd	sp!, {fp, lr}
	add	fp, sp, #4
	sub	sp, sp, #24
	str	r0, [fp, #-24]
	str	r1, [fp, #-28]
	mov	r3, #0
	str	r3, [fp, #-16]
	ldr	r3, .L37
	mov	r0, r3
	bl	printf
	ldr	r2, .L37+4
	sub	r3, fp, #16
	mov	r0, r2
	mov	r1, r3
	bl	__isoc99_scanf
	str	r0, [fp, #-12]
	ldr	r3, [fp, #-16]
	cmp	r3, #0
	bne	.L33
	mov	r0, #0
	bl	exit
.L33:
	ldr	r3, [fp, #-12]
	cmp	r3, #1
	beq	.L34
	ldr	r0, .L37+8
	bl	puts
	mov	r0, #1
	bl	exit
.L34:
	ldr	r3, [fp, #-16]
	sub	r2, r3, #1
	mov	r3, r2
	mov	r3, r3, asl #1
	add	r3, r3, r2
	mov	r3, r3, asl #2
	ldr	r2, [fp, #-28]
	add	r3, r2, r3
	ldr	r3, [r3, #8]
	str	r3, [fp, #-8]
	b	.L35
.L36:
	ldr	r3, .L37+12
	mov	r0, r3
	bl	printf
	ldr	r2, .L37+4
	sub	r3, fp, #16
	mov	r0, r2
	mov	r1, r3
	bl	__isoc99_scanf
	str	r0, [fp, #-12]
	ldr	r3, [fp, #-16]
	sub	r2, r3, #1
	mov	r3, r2
	mov	r3, r3, asl #1
	add	r3, r3, r2
	mov	r3, r3, asl #2
	ldr	r2, [fp, #-28]
	add	r3, r2, r3
	ldr	r3, [r3, #8]
	str	r3, [fp, #-8]
	ldr	r3, [fp, #-12]
	cmp	r3, #1
	beq	.L35
	ldr	r0, .L37+8
	bl	puts
	mov	r0, #1
	bl	exit
.L35:
	ldr	r3, [fp, #-8]
	cmp	r3, #1
	beq	.L36
	ldr	r3, [fp, #-16]
	mov	r0, r3
	sub	sp, fp, #4
	ldmfd	sp!, {fp, pc}
.L38:
	.align	2
.L37:
	.word	.LC111
	.word	.LC101
	.word	.LC102
	.word	.LC112
	.size	checkWordsRemain, .-checkWordsRemain
	.section	.rodata
	.align	2
.LC113:
	.ascii	"YOU WON! Thanks for playing!\000"
	.text
	.align	2
	.global	checkFinished
	.type	checkFinished, %function
checkFinished:
	@ args = 0, pretend = 0, frame = 16
	@ frame_needed = 1, uses_anonymous_args = 0
	stmfd	sp!, {fp, lr}
	add	fp, sp, #4
	sub	sp, sp, #16
	str	r0, [fp, #-16]
	str	r1, [fp, #-20]
	mov	r3, #1
	str	r3, [fp, #-8]
	mov	r3, #0
	str	r3, [fp, #-12]
	b	.L40
.L42:
	ldr	r2, [fp, #-12]
	mov	r3, r2
	mov	r3, r3, asl #1
	add	r3, r3, r2
	mov	r3, r3, asl #2
	ldr	r2, [fp, #-20]
	add	r3, r2, r3
	ldr	r3, [r3, #8]
	cmp	r3, #0
	bne	.L41
	mov	r3, #0
	str	r3, [fp, #-8]
.L41:
	ldr	r3, [fp, #-12]
	add	r3, r3, #1
	str	r3, [fp, #-12]
.L40:
	ldr	r2, [fp, #-12]
	ldr	r3, [fp, #-16]
	cmp	r2, r3
	blt	.L42
	ldr	r3, [fp, #-8]
	cmp	r3, #1
	bne	.L43
	ldr	r0, .L44
	bl	puts
.L43:
	ldr	r3, [fp, #-8]
	mov	r0, r3
	sub	sp, fp, #4
	ldmfd	sp!, {fp, pc}
.L45:
	.align	2
.L44:
	.word	.LC113
	.size	checkFinished, .-checkFinished
	.section	.rodata
	.align	2
.LC114:
	.ascii	"What row do you think '%s' appears in: \000"
	.align	2
.LC115:
	.ascii	"The number you have entered is out of bounds, pleas"
	.ascii	"e enter a number between 1 and %d: \000"
	.align	2
.LC116:
	.ascii	"Sorry that wasn't correct\000"
	.align	2
.LC117:
	.ascii	"CORRECT! Now what column do you think the first let"
	.ascii	"ter of '%s' appears in: \000"
	.align	2
.LC118:
	.ascii	"CORRECT!\000"
	.text
	.align	2
	.global	playGame
	.type	playGame, %function
playGame:
	@ args = 0, pretend = 0, frame = 40
	@ frame_needed = 1, uses_anonymous_args = 0
	stmfd	sp!, {fp, lr}
	add	fp, sp, #4
	sub	sp, sp, #40
	str	r0, [fp, #-32]
	str	r1, [fp, #-36]
	str	r2, [fp, #-40]
	str	r3, [fp, #-44]
	mov	r3, #0
	str	r3, [fp, #-8]
	b	.L47
.L57:
	mov	r3, #0
	str	r3, [fp, #-12]
	mov	r3, #0
	str	r3, [fp, #-24]
	mov	r3, #0
	str	r3, [fp, #-28]
	ldr	r0, [fp, #-32]
	ldr	r1, [fp, #-40]
	bl	checkWordsRemain
	str	r0, [fp, #-12]
	ldr	r2, .L58
	ldr	r3, [fp, #-12]
	sub	r3, r3, #1
	mov	r3, r3, asl #2
	ldr	r1, [fp, #-44]
	add	r3, r1, r3
	ldr	r3, [r3, #0]
	mov	r0, r2
	mov	r1, r3
	bl	printf
	ldr	r2, .L58+4
	sub	r3, fp, #24
	mov	r0, r2
	mov	r1, r3
	bl	__isoc99_scanf
	str	r0, [fp, #-16]
	ldr	r3, [fp, #-16]
	cmp	r3, #1
	beq	.L48
	ldr	r0, .L58+8
	bl	puts
	mov	r0, #1
	bl	exit
.L48:
	ldr	r3, [fp, #-12]
	sub	r2, r3, #1
	mov	r3, r2
	mov	r3, r3, asl #1
	add	r3, r3, r2
	mov	r3, r3, asl #2
	ldr	r2, [fp, #-40]
	add	r3, r2, r3
	ldr	r3, [r3, #4]
	str	r3, [fp, #-20]
	b	.L49
.L50:
	ldr	r3, .L58+12
	mov	r0, r3
	ldr	r1, [fp, #-36]
	bl	printf
	ldr	r2, .L58+4
	sub	r3, fp, #24
	mov	r0, r2
	mov	r1, r3
	bl	__isoc99_scanf
	str	r0, [fp, #-16]
	ldr	r3, [fp, #-16]
	cmp	r3, #1
	beq	.L49
	ldr	r0, .L58+8
	bl	puts
	mov	r0, #1
	bl	exit
.L49:
	ldr	r3, [fp, #-24]
	cmp	r3, #0
	ble	.L50
	ldr	r2, [fp, #-24]
	ldr	r3, [fp, #-36]
	cmp	r2, r3
	bgt	.L50
	ldr	r3, [fp, #-24]
	ldr	r2, [fp, #-20]
	cmp	r2, r3
	beq	.L51
	ldr	r0, .L58+16
	bl	puts
	b	.L47
.L51:
	ldr	r2, .L58+20
	ldr	r3, [fp, #-12]
	sub	r3, r3, #1
	mov	r3, r3, asl #2
	ldr	r1, [fp, #-44]
	add	r3, r1, r3
	ldr	r3, [r3, #0]
	mov	r0, r2
	mov	r1, r3
	bl	printf
	ldr	r2, .L58+4
	sub	r3, fp, #28
	mov	r0, r2
	mov	r1, r3
	bl	__isoc99_scanf
	str	r0, [fp, #-16]
	ldr	r3, [fp, #-16]
	cmp	r3, #1
	beq	.L52
	ldr	r0, .L58+8
	bl	puts
	mov	r0, #1
	bl	exit
.L52:
	ldr	r3, [fp, #-12]
	sub	r2, r3, #1
	mov	r3, r2
	mov	r3, r3, asl #1
	add	r3, r3, r2
	mov	r3, r3, asl #2
	ldr	r2, [fp, #-40]
	add	r3, r2, r3
	ldr	r3, [r3, #0]
	str	r3, [fp, #-20]
	b	.L53
.L54:
	ldr	r3, .L58+12
	mov	r0, r3
	ldr	r1, [fp, #-36]
	bl	printf
	ldr	r2, .L58+4
	sub	r3, fp, #28
	mov	r0, r2
	mov	r1, r3
	bl	__isoc99_scanf
	str	r0, [fp, #-16]
	ldr	r3, [fp, #-16]
	cmp	r3, #1
	beq	.L53
	ldr	r0, .L58+8
	bl	puts
	mov	r0, #1
	bl	exit
.L53:
	ldr	r3, [fp, #-28]
	cmp	r3, #0
	ble	.L54
	ldr	r2, [fp, #-28]
	ldr	r3, [fp, #-36]
	cmp	r2, r3
	bgt	.L54
	ldr	r3, [fp, #-28]
	ldr	r2, [fp, #-20]
	cmp	r2, r3
	beq	.L55
	ldr	r0, .L58+16
	bl	puts
	b	.L56
.L55:
	ldr	r0, .L58+24
	bl	puts
	ldr	r3, [fp, #-12]
	sub	r2, r3, #1
	mov	r3, r2
	mov	r3, r3, asl #1
	add	r3, r3, r2
	mov	r3, r3, asl #2
	ldr	r2, [fp, #-40]
	add	r3, r2, r3
	mov	r2, #1
	str	r2, [r3, #8]
.L56:
	ldr	r0, [fp, #-32]
	ldr	r1, [fp, #-40]
	bl	checkFinished
	str	r0, [fp, #-8]
.L47:
	ldr	r3, [fp, #-8]
	cmp	r3, #0
	beq	.L57
	sub	sp, fp, #4
	ldmfd	sp!, {fp, pc}
.L59:
	.align	2
.L58:
	.word	.LC114
	.word	.LC101
	.word	.LC102
	.word	.LC115
	.word	.LC116
	.word	.LC117
	.word	.LC118
	.size	playGame, .-playGame
	.align	2
	.global	reverseString
	.type	reverseString, %function
reverseString:
	@ args = 0, pretend = 0, frame = 24
	@ frame_needed = 1, uses_anonymous_args = 0
	@ link register save eliminated.
	stmfd	sp!, {r4, r5, r6, r7, fp}
	add	fp, sp, #16
	sub	sp, sp, #28
	str	r0, [fp, #-40]
	str	r1, [fp, #-44]
	mov	r3, sp
	mov	ip, r3
	ldr	r0, [fp, #-40]
	sub	r3, r0, #1
	str	r3, [fp, #-28]
	mov	r1, r0
	mov	r2, r1
	mov	r3, #0
	mov	r1, r2, lsr #29
	mov	r7, r3, asl #3
	orr	r7, r1, r7
	mov	r6, r2, asl #3
	mov	r1, r0
	mov	r2, r1
	mov	r3, #0
	mov	r1, r2, lsr #29
	mov	r5, r3, asl #3
	orr	r5, r1, r5
	mov	r4, r2, asl #3
	mov	r3, r0
	add	r3, r3, #7
	add	r3, r3, #7
	mov	r3, r3, lsr #3
	mov	r3, r3, asl #3
	sub	sp, sp, r3
	mov	r3, sp
	add	r3, r3, #7
	mov	r3, r3, lsr #3
	mov	r3, r3, asl #3
	str	r3, [fp, #-32]
	mov	r3, #0
	str	r3, [fp, #-24]
	b	.L61
.L62:
	ldr	r2, [fp, #-40]
	ldr	r3, [fp, #-24]
	rsb	r3, r3, r2
	ldr	r2, [fp, #-44]
	add	r3, r2, r3
	ldrb	r2, [r3, #0]	@ zero_extendqisi2
	ldr	r1, [fp, #-32]
	ldr	r3, [fp, #-24]
	add	r3, r1, r3
	strb	r2, [r3, #0]
	ldr	r3, [fp, #-24]
	add	r3, r3, #1
	str	r3, [fp, #-24]
.L61:
	ldr	r2, [fp, #-24]
	ldr	r3, [fp, #-40]
	cmp	r2, r3
	blt	.L62
	ldr	r3, [fp, #-32]
	str	r3, [fp, #-44]
	mov	sp, ip
	sub	sp, fp, #16
	ldmfd	sp!, {r4, r5, r6, r7, fp}
	bx	lr
	.size	reverseString, .-reverseString
	.global	__aeabi_idiv
	.align	2
	.global	createMatrix
	.type	createMatrix, %function
createMatrix:
	@ args = 4, pretend = 0, frame = 64
	@ frame_needed = 1, uses_anonymous_args = 0
	stmfd	sp!, {r4, r5, r6, r7, r8, r9, fp, lr}
	add	fp, sp, #28
	sub	sp, sp, #64
	str	r0, [fp, #-72]
	str	r1, [fp, #-76]
	str	r2, [fp, #-80]
	str	r3, [fp, #-84]
	ldr	r3, [fp, #-72]
	add	r6, r3, #1
	sub	r3, r6, #1
	str	r3, [fp, #-44]
	mov	r1, r6
	mov	r2, r1
	mov	r3, #0
	mov	r1, r2, lsr #29
	mov	r5, r3, asl #3
	orr	r5, r1, r5
	mov	r4, r2, asl #3
	mov	r3, sp
	mov	r7, r3
	ldr	r0, [fp, #-72]
	sub	r3, r0, #1
	str	r3, [fp, #-48]
	mov	r1, r0
	mov	r2, r1
	mov	r3, #0
	mov	r1, r2, lsr #27
	mov	ip, r3, asl #5
	str	ip, [fp, #-88]
	ldr	ip, [fp, #-88]
	orr	ip, r1, ip
	str	ip, [fp, #-88]
	mov	r1, r2, asl #5
	mov	r1, r0
	mov	r2, r1
	mov	r3, #0
	mov	r1, r2, lsr #27
	mov	r9, r3, asl #5
	orr	r9, r1, r9
	mov	r8, r2, asl #5
	mov	r3, r0
	mov	r3, r3, asl #2
	add	r3, r3, #7
	add	r3, r3, #7
	mov	r3, r3, lsr #3
	mov	r3, r3, asl #3
	sub	sp, sp, r3
	mov	r3, sp
	add	r3, r3, #7
	mov	r3, r3, lsr #3
	mov	r3, r3, asl #3
	str	r3, [fp, #-52]
	ldr	r2, [fp, #-52]
	mov	r3, r0
	mov	r3, r3, asl #2
	mov	r0, r2
	mov	r1, #0
	mov	r2, r3
	bl	memset
	mov	r3, #0
	str	r3, [fp, #-32]
	b	.L64
.L65:
	ldr	r0, [fp, #-32]
	ldr	r1, [fp, #-72]
	bl	__aeabi_idiv
	mov	r3, r0
	mov	r2, r6
	mul	r3, r2, r3
	ldr	r2, [fp, #4]
	add	r4, r2, r3
	ldr	r3, [fp, #-32]
	mov	r0, r3
	ldr	r1, [fp, #-72]
	bl	__aeabi_idivmod
	mov	r3, r1
	mov	r2, #48
	strb	r2, [r4, r3]
	ldr	r3, [fp, #-32]
	add	r3, r3, #1
	str	r3, [fp, #-32]
.L64:
	ldr	r3, [fp, #-72]
	ldr	r2, [fp, #-72]
	mul	r2, r2, r3
	ldr	r3, [fp, #-32]
	cmp	r2, r3
	bgt	.L65
	mov	r3, #0
	str	r3, [fp, #-32]
	b	.L66
.L69:
	mov	r3, #0
	str	r3, [fp, #-36]
	b	.L67
.L68:
	ldr	r2, [fp, #-32]
	mov	r3, r2
	mov	r3, r3, asl #1
	add	r3, r3, r2
	mov	r3, r3, asl #2
	ldr	r2, [fp, #-84]
	add	r3, r2, r3
	ldr	r2, [fp, #-36]
	mov	r1, #0
	str	r1, [r3, r2, asl #2]
	ldr	r3, [fp, #-36]
	add	r3, r3, #1
	str	r3, [fp, #-36]
.L67:
	ldr	r3, [fp, #-36]
	cmp	r3, #2
	ble	.L68
	ldr	r3, [fp, #-32]
	add	r3, r3, #1
	str	r3, [fp, #-32]
.L66:
	ldr	r2, [fp, #-32]
	ldr	r3, [fp, #-76]
	cmp	r2, r3
	blt	.L69
	mov	r3, #0
	str	r3, [fp, #-32]
	b	.L70
.L71:
	mov	r3, r6
	ldr	r2, [fp, #-32]
	mul	r3, r2, r3
	ldr	r2, [fp, #4]
	add	r2, r2, r3
	ldr	r3, [fp, #-72]
	add	r3, r2, r3
	mov	r2, #0
	strb	r2, [r3, #0]
	ldr	r3, [fp, #-32]
	add	r3, r3, #1
	str	r3, [fp, #-32]
.L70:
	ldr	r2, [fp, #-32]
	ldr	r3, [fp, #-72]
	cmp	r2, r3
	blt	.L71
	mov	r3, #0
	str	r3, [fp, #-32]
	b	.L72
.L78:
	ldr	r3, [fp, #-32]
	mov	r3, r3, asl #2
	ldr	r2, [fp, #-80]
	add	r3, r2, r3
	ldr	r3, [r3, #0]
	mov	r0, r3
	bl	strlen
	mov	r3, r0
	str	r3, [fp, #-56]
	bl	rand
	mov	r2, r0
	mov	r3, r2, asr #31
	mov	r3, r3, lsr #31
	add	r2, r2, r3
	and	r2, r2, #1
	rsb	r3, r3, r2
	str	r3, [fp, #-60]
	ldr	r3, [fp, #-60]
	cmp	r3, #1
	bne	.L73
	ldr	r3, [fp, #-32]
	mov	r3, r3, asl #2
	ldr	r2, [fp, #-80]
	add	r3, r2, r3
	ldr	r3, [r3, #0]
	ldr	r0, [fp, #-56]
	mov	r1, r3
	bl	reverseString
.L73:
	bl	rand
	mov	r2, r0
	ldr	r1, [fp, #-72]
	ldr	r3, [fp, #-56]
	rsb	r3, r3, r1
	mov	r0, r2
	mov	r1, r3
	bl	__aeabi_idivmod
	mov	r3, r1
	str	r3, [fp, #-64]
	bl	rand
	mov	r3, r0
	mov	r0, r3
	ldr	r1, [fp, #-72]
	bl	__aeabi_idivmod
	mov	r3, r1
	str	r3, [fp, #-40]
	ldr	r3, [fp, #-52]
	ldr	r2, [fp, #-40]
	ldr	r3, [r3, r2, asl #2]
	cmp	r3, #0
	bne	.L82
	mov	r3, r6
	ldr	r2, [fp, #-40]
	mul	r2, r2, r3
	ldr	r3, [fp, #-64]
	add	r3, r2, r3
	ldr	r2, [fp, #4]
	add	r1, r2, r3
	ldr	r3, [fp, #-32]
	mov	r3, r3, asl #2
	ldr	r2, [fp, #-80]
	add	r3, r2, r3
	ldr	r3, [r3, #0]
	mov	r2, r3
	ldr	r3, [fp, #-56]
	mov	r0, r1
	mov	r1, r2
	mov	r2, r3
	bl	strncpy
	ldr	r3, [fp, #-52]
	ldr	r2, [fp, #-40]
	mov	r1, #1
	str	r1, [r3, r2, asl #2]
	b	.L75
.L77:
	bl	rand
	mov	r3, r0
	mov	r0, r3
	ldr	r1, [fp, #-72]
	bl	__aeabi_idivmod
	mov	r3, r1
	str	r3, [fp, #-40]
	b	.L76
.L82:
	mov	r0, r0	@ nop
.L76:
	ldr	r3, [fp, #-52]
	ldr	r2, [fp, #-40]
	ldr	r3, [r3, r2, asl #2]
	cmp	r3, #1
	beq	.L77
.L75:
	mov	r3, r6
	ldr	r2, [fp, #-40]
	mul	r2, r2, r3
	ldr	r3, [fp, #-64]
	add	r3, r2, r3
	ldr	r2, [fp, #4]
	add	r1, r2, r3
	ldr	r3, [fp, #-32]
	mov	r3, r3, asl #2
	ldr	r2, [fp, #-80]
	add	r3, r2, r3
	ldr	r3, [r3, #0]
	mov	r2, r3
	ldr	r3, [fp, #-56]
	mov	r0, r1
	mov	r1, r2
	mov	r2, r3
	bl	strncpy
	ldr	r2, [fp, #-32]
	mov	r3, r2
	mov	r3, r3, asl #1
	add	r3, r3, r2
	mov	r3, r3, asl #2
	ldr	r2, [fp, #-84]
	add	r3, r2, r3
	ldr	r2, [fp, #-64]
	add	r2, r2, #1
	str	r2, [r3, #0]
	ldr	r2, [fp, #-32]
	mov	r3, r2
	mov	r3, r3, asl #1
	add	r3, r3, r2
	mov	r3, r3, asl #2
	ldr	r2, [fp, #-84]
	add	r3, r2, r3
	ldr	r2, [fp, #-40]
	add	r2, r2, #1
	str	r2, [r3, #4]
	ldr	r3, [fp, #-32]
	add	r3, r3, #1
	str	r3, [fp, #-32]
.L72:
	ldr	r2, [fp, #-32]
	ldr	r3, [fp, #-76]
	cmp	r2, r3
	blt	.L78
	mov	r3, #0
	str	r3, [fp, #-32]
	b	.L79
.L81:
	ldr	r0, [fp, #-32]
	ldr	r1, [fp, #-72]
	bl	__aeabi_idiv
	mov	r3, r0
	mov	r2, r6
	mul	r3, r2, r3
	ldr	r2, [fp, #4]
	add	r4, r2, r3
	ldr	r3, [fp, #-32]
	mov	r0, r3
	ldr	r1, [fp, #-72]
	bl	__aeabi_idivmod
	mov	r3, r1
	ldrb	r3, [r4, r3]	@ zero_extendqisi2
	cmp	r3, #48
	bne	.L80
	ldr	r0, [fp, #-32]
	ldr	r1, [fp, #-72]
	bl	__aeabi_idiv
	mov	r3, r0
	mov	r2, r6
	mul	r3, r2, r3
	ldr	r2, [fp, #4]
	add	r5, r2, r3
	ldr	r3, [fp, #-32]
	mov	r0, r3
	ldr	r1, [fp, #-72]
	bl	__aeabi_idivmod
	mov	r3, r1
	mov	r4, r3
	bl	rand
	mov	r1, r0
	ldr	r3, .L83
	smull	r2, r3, r3, r1
	mov	r2, r3, asr #3
	mov	r3, r1, asr #31
	rsb	r2, r3, r2
	mov	r3, r2
	mov	r3, r3, asl #2
	add	r3, r3, r2
	mov	r2, r3, asl #2
	add	r3, r3, r2
	rsb	r2, r3, r1
	uxtb	r3, r2
	add	r3, r3, #97
	uxtb	r3, r3
	strb	r3, [r5, r4]
.L80:
	ldr	r3, [fp, #-32]
	add	r3, r3, #1
	str	r3, [fp, #-32]
.L79:
	ldr	r3, [fp, #-72]
	ldr	r2, [fp, #-72]
	mul	r2, r2, r3
	ldr	r3, [fp, #-32]
	cmp	r2, r3
	bgt	.L81
	mov	sp, r7
	sub	sp, fp, #28
	ldmfd	sp!, {r4, r5, r6, r7, r8, r9, fp, pc}
.L84:
	.align	2
.L83:
	.word	1374389535
	.size	createMatrix, .-createMatrix
	.align	2
	.global	main
	.type	main, %function
main:
	@ args = 0, pretend = 0, frame = 64
	@ frame_needed = 1, uses_anonymous_args = 0
	stmfd	sp!, {r4, r5, r6, r7, r8, r9, sl, fp, lr}
	add	fp, sp, #32
	sub	sp, sp, #76
	mov	r3, sp
	mov	r9, r3
	bl	getSize
	str	r0, [fp, #-44]
	ldr	r2, [fp, #-44]
	mov	r3, r2, lsr #31
	add	r3, r3, r2
	mov	r3, r3, asr #1
	str	r3, [fp, #-48]
	ldr	r0, [fp, #-48]
	sub	r3, r0, #1
	str	r3, [fp, #-52]
	mov	r1, r0
	mov	r2, r1
	mov	r3, #0
	mov	r1, r2, lsr #27
	mov	r5, r3, asl #5
	orr	r5, r1, r5
	mov	r4, r2, asl #5
	mov	r1, r0
	mov	r2, r1
	mov	r3, #0
	mov	r1, r2, lsr #27
	mov	r7, r3, asl #5
	orr	r7, r1, r7
	mov	r6, r2, asl #5
	mov	r3, r0
	mov	r3, r3, asl #2
	add	r3, r3, #7
	add	r3, r3, #7
	mov	r3, r3, lsr #3
	mov	r3, r3, asl #3
	sub	sp, sp, r3
	add	r3, sp, #8
	add	r3, r3, #7
	mov	r3, r3, lsr #3
	mov	r3, r3, asl #3
	str	r3, [fp, #-56]
	mov	r3, #0
	str	r3, [fp, #-40]
	b	.L86
.L87:
	ldr	r3, [fp, #-44]
	add	r3, r3, #1
	mov	r0, r3
	bl	malloc
	mov	r3, r0
	mov	r1, r3
	ldr	r3, [fp, #-56]
	ldr	r2, [fp, #-40]
	str	r1, [r3, r2, asl #2]
	ldr	r3, [fp, #-40]
	add	r3, r3, #1
	str	r3, [fp, #-40]
.L86:
	ldr	r2, [fp, #-40]
	ldr	r3, [fp, #-44]
	cmp	r2, r3
	blt	.L87
	ldr	r3, [fp, #-56]
	ldr	r0, [fp, #-44]
	ldr	r1, [fp, #-48]
	mov	r2, r3
	bl	getWords
	ldr	lr, [fp, #-48]
	mov	r3, sp
	mov	sl, r3
	sub	r3, lr, #1
	str	r3, [fp, #-60]
	mov	r3, lr
	mov	r0, r3
	mov	r1, #0
	mov	r3, #96
	mul	r2, r3, r1
	mov	r3, #0
	mul	r3, r3, r0
	add	ip, r2, r3
	mov	r3, #96
	umull	r2, r3, r0, r3
	add	r1, ip, r3
	mov	r3, r1
	mov	r2, lr
	mov	r3, r2
	mov	r3, r3, asl #1
	add	r3, r3, r2
	mov	r3, r3, asl #2
	mov	r3, lr
	mov	r0, r3
	mov	r1, #0
	mov	r3, #96
	mul	r2, r3, r1
	mov	r3, #0
	mul	r3, r3, r0
	add	ip, r2, r3
	mov	r3, #96
	umull	r2, r3, r0, r3
	add	r1, ip, r3
	mov	r3, r1
	mov	r2, lr
	mov	r3, r2
	mov	r3, r3, asl #1
	add	r3, r3, r2
	mov	r3, r3, asl #2
	add	r3, r3, #7
	add	r3, r3, #7
	mov	r3, r3, lsr #3
	mov	r3, r3, asl #3
	sub	sp, sp, r3
	add	r3, sp, #8
	add	r3, r3, #7
	mov	r3, r3, lsr #3
	mov	r3, r3, asl #3
	str	r3, [fp, #-64]
	ldr	r3, [fp, #-44]
	add	lr, r3, #1
	ldr	r8, [fp, #-44]
	sub	r3, lr, #1
	str	r3, [fp, #-68]
	mov	r1, lr
	mov	r2, r1
	mov	r3, #0
	mov	r1, r2, lsr #29
	mov	r0, r3, asl #3
	str	r0, [fp, #-80]
	ldr	r0, [fp, #-80]
	orr	r0, r1, r0
	str	r0, [fp, #-80]
	mov	r1, r2, asl #3
	sub	r3, r8, #1
	str	r3, [fp, #-72]
	mov	r3, lr
	mov	r4, r3
	mov	r5, #0
	mov	r3, r8
	mov	r0, r3
	mov	r1, #0
	mul	r2, r0, r5
	mul	r3, r4, r1
	add	ip, r2, r3
	umull	r2, r3, r4, r0
	add	r1, ip, r3
	mov	r3, r1
	mov	r1, r2, lsr #29
	mov	r0, r3, asl #3
	str	r0, [fp, #-88]
	ldr	r0, [fp, #-88]
	orr	r0, r1, r0
	str	r0, [fp, #-88]
	mov	r1, r2, asl #3
	mov	r3, lr
	mov	r6, r3
	mov	r7, #0
	mov	r3, r8
	mov	r4, r3
	mov	r5, #0
	mul	r2, r4, r7
	mul	r3, r6, r5
	add	r1, r2, r3
	umull	r2, r3, r6, r4
	add	r1, r1, r3
	mov	r3, r1
	mov	r1, r2, lsr #29
	mov	r0, r3, asl #3
	str	r0, [fp, #-96]
	ldr	r0, [fp, #-96]
	orr	r0, r1, r0
	str	r0, [fp, #-96]
	mov	r1, r2, asl #3
	mov	r3, lr
	mov	r2, r8
	mul	r3, r2, r3
	add	r3, r3, #7
	add	r3, r3, #7
	mov	r3, r3, lsr #3
	mov	r3, r3, asl #3
	sub	sp, sp, r3
	add	r3, sp, #8
	add	r3, r3, #7
	mov	r3, r3, lsr #3
	mov	r3, r3, asl #3
	str	r3, [fp, #-76]
	ldr	r2, [fp, #-56]
	ldr	r3, [fp, #-64]
	ldr	r1, [fp, #-76]
	str	r1, [sp, #0]
	ldr	r0, [fp, #-44]
	ldr	r1, [fp, #-48]
	bl	createMatrix
	ldr	r3, [fp, #-76]
	ldr	r0, [fp, #-44]
	mov	r1, r3
	bl	printGrid
	ldr	r3, [fp, #-56]
	ldr	r0, [fp, #-48]
	ldr	r1, [fp, #-44]
	mov	r2, r3
	bl	printKey
	ldr	r2, [fp, #-64]
	ldr	r3, [fp, #-56]
	ldr	r0, [fp, #-48]
	ldr	r1, [fp, #-44]
	bl	playGame
	mov	r3, #0
	mov	sp, sl
	mov	sp, r9
	mov	r0, r3
	sub	sp, fp, #32
	ldmfd	sp!, {r4, r5, r6, r7, r8, r9, sl, fp, pc}
	.size	main, .-main
	.ident	"GCC: (Debian 4.6.3-14+rpi1) 4.6.3"
	.section	.note.GNU-stack,"",%progbits
